; Function Attrs: mustprogress uwtable
define dso_local noundef zeroext i1 @_ZN11FactPointTo12is_valid_ptrEPK8VariableRKSt6vectorIPK4FactSaIS6_EE(ptr noundef %0, ptr noundef nonnull align 8 dereferenceable(24) %1) local_unnamed_addr #6 align 2 personality ptr @__gxx_personality_v0 {
  %3 = alloca %class.FactPointTo, align 8
  call void @llvm.lifetime.start.p0(i64 48, ptr nonnull %3) #22
  call void @_ZN4FactC2E13eFactCategory(ptr noundef nonnull align 8 dereferenceable(48) %3, i32 noundef 1)
  store ptr getelementptr inbounds nuw inrange(-16, 152) (i8, ptr @_ZTV11FactPointTo, i64 16), ptr %3, align 8, !tbaa !35
  %4 = getelementptr inbounds nuw i8, ptr %3, i64 16
  store ptr %0, ptr %4, align 8, !tbaa !22
  %5 = getelementptr inbounds nuw i8, ptr %3, i64 24
  call void @llvm.memset.p0.i64(ptr noundef nonnull align 8 dereferenceable(24) %5, i8 0, i64 24, i1 false)
  %6 = invoke noalias noundef nonnull dereferenceable(8) ptr @_Znwm(i64 noundef 8) #24
          to label %_ZN11FactPointToC2EPK8Variable.exit unwind label %_ZNSt6vectorIPK8VariableSaIS2_EED2Ev.exit.i

common.resume:                                    ; preds = %49, %_ZNSt6vectorIPK8VariableSaIS2_EED2Ev.exit.i
  %common.resume.op = phi { ptr, i32 } [ %7, %_ZNSt6vectorIPK8VariableSaIS2_EED2Ev.exit.i ], [ %50, %49 ]
  resume { ptr, i32 } %common.resume.op

_ZNSt6vectorIPK8VariableSaIS2_EED2Ev.exit.i:      ; preds = %2
  %7 = landingpad { ptr, i32 }
          cleanup
  call void @_ZN4FactD2Ev(ptr noundef nonnull align 8 dereferenceable(48) %3) #22
  br label %common.resume

_ZN11FactPointToC2EPK8Variable.exit:              ; preds = %2
  %8 = getelementptr inbounds nuw i8, ptr %3, i64 40
  %9 = getelementptr inbounds nuw i8, ptr %3, i64 32
  %10 = load ptr, ptr @_ZN11FactPointTo11garbage_ptrE, align 8, !tbaa !19
  store ptr %10, ptr %6, align 8, !tbaa !19
  %11 = getelementptr inbounds nuw i8, ptr %6, i64 8
  store ptr %6, ptr %5, align 8, !tbaa !4
  store ptr %11, ptr %9, align 8, !tbaa !18
  store ptr %11, ptr %8, align 8, !tbaa !10
  %12 = invoke noundef ptr @_Z17find_related_factRKSt6vectorIPK4FactSaIS2_EES2_(ptr noundef nonnull align 8 dereferenceable(24) %1, ptr noundef nonnull %3)
          to label %13 unwind label %49

13:                                               ; preds = %_ZN11FactPointToC2EPK8Variable.exit
  %.not = icmp eq ptr %12, null
  br i1 %.not, label %_ZNK11FactPointTo7is_nullEv.exit, label %14

14:                                               ; preds = %13
  %15 = invoke noundef i32 @_ZN9CGOptions29null_pointer_dereference_probEv()
          to label %16 unwind label %49

16:                                               ; preds = %14
  %17 = icmp sgt i32 %15, 0
  br i1 %17, label %_ZNK11FactPointTo7is_nullEv.exit.thread, label %18

18:                                               ; preds = %16
  %19 = getelementptr inbounds nuw i8, ptr %12, i64 24
  %20 = getelementptr inbounds nuw i8, ptr %12, i64 32
  %21 = load ptr, ptr %20, align 8, !tbaa !18
  %22 = load ptr, ptr %19, align 8, !tbaa !4
  %.not.i = icmp eq ptr %21, %22
  br i1 %.not.i, label %_ZNK11FactPointTo7is_nullEv.exit.thread, label %.lr.ph.i

.lr.ph.i:                                         ; preds = %18
  %23 = ptrtoint ptr %21 to i64
  %24 = ptrtoint ptr %22 to i64
  %25 = sub i64 %23, %24
  %26 = ashr exact i64 %25, 3
  %27 = load ptr, ptr @_ZN11FactPointTo8null_ptrE, align 8, !tbaa !19
  %umax.i = call i64 @llvm.umax.i64(i64 %26, i64 1)
  br label %30

28:                                               ; preds = %30
  %29 = add nuw i64 %.05.i, 1
  %exitcond.not.i = icmp eq i64 %29, %umax.i
  br i1 %exitcond.not.i, label %_ZNK11FactPointTo7is_nullEv.exit.thread, label %30, !llvm.loop !21

30:                                               ; preds = %28, %.lr.ph.i
  %.05.i = phi i64 [ 0, %.lr.ph.i ], [ %29, %28 ]
  %31 = getelementptr inbounds nuw ptr, ptr %22, i64 %.05.i
  %32 = load ptr, ptr %31, align 8, !tbaa !19
  %33 = icmp eq ptr %32, %27
  br i1 %33, label %_ZNK11FactPointTo7is_nullEv.exit, label %28

_ZNK11FactPointTo7is_nullEv.exit.thread:          ; preds = %28, %18, %16
  %34 = invoke noundef i32 @_ZN9CGOptions29dead_pointer_dereference_probEv()
          to label %35 unwind label %49

35:                                               ; preds = %_ZNK11FactPointTo7is_nullEv.exit.thread
  %36 = icmp sgt i32 %34, 0
  br i1 %36, label %_ZNK11FactPointTo7is_nullEv.exit, label %37

37:                                               ; preds = %35
  %38 = getelementptr inbounds nuw i8, ptr %12, i64 24
  %39 = load ptr, ptr @_ZN11FactPointTo11garbage_ptrE, align 8, !tbaa !19
  %40 = invoke noundef i32 @_Z20find_variable_in_setRKSt6vectorIPK8VariableSaIS2_EES2_(ptr noundef nonnull align 8 dereferenceable(24) %38, ptr noundef %39)
          to label %41 unwind label %49

41:                                               ; preds = %37
  %.not8 = icmp eq i32 %40, -1
  br label %_ZNK11FactPointTo7is_nullEv.exit

_ZNK11FactPointTo7is_nullEv.exit:                 ; preds = %30, %35, %41, %13
  %42 = phi i1 [ false, %13 ], [ true, %35 ], [ %.not8, %41 ], [ false, %30 ]
  store ptr getelementptr inbounds nuw inrange(-16, 152) (i8, ptr @_ZTV11FactPointTo, i64 16), ptr %3, align 8, !tbaa !35
  %43 = load ptr, ptr %5, align 8, !tbaa !4
  %.not.i.i.i.i = icmp eq ptr %43, null
  br i1 %.not.i.i.i.i, label %_ZN11FactPointToD2Ev.exit, label %44

44:                                               ; preds = %_ZNK11FactPointTo7is_nullEv.exit
  %45 = load ptr, ptr %8, align 8, !tbaa !10
  %46 = ptrtoint ptr %45 to i64
  %47 = ptrtoint ptr %43 to i64
  %48 = sub i64 %46, %47
  call void @_ZdlPvm(ptr noundef nonnull %43, i64 noundef %48) #21
  br label %_ZN11FactPointToD2Ev.exit

_ZN11FactPointToD2Ev.exit:                        ; preds = %_ZNK11FactPointTo7is_nullEv.exit, %44
  call void @_ZN4FactD2Ev(ptr noundef nonnull align 8 dereferenceable(48) %3) #22
  call void @llvm.lifetime.end.p0(i64 48, ptr nonnull %3) #22
  ret i1 %42

49:                                               ; preds = %37, %_ZNK11FactPointTo7is_nullEv.exit.thread, %14, %_ZN11FactPointToC2EPK8Variable.exit
  %50 = landingpad { ptr, i32 }
          cleanup
  call void @_ZN11FactPointToD2Ev(ptr noundef nonnull align 8 dereferenceable(48) %3) #22
  call void @llvm.lifetime.end.p0(i64 48, ptr nonnull %3) #22
  br label %common.resume
}